; Function Attrs: mustprogress uwtable
define dso_local void @_ZN6cmTestC2EP10cmMakefile(ptr noundef nonnull align 8 dereferenceable(148) %0, ptr noundef %1) unnamed_addr #3 align 2 personality ptr @__gxx_personality_v0 {
  %3 = getelementptr inbounds nuw i8, ptr %0, i64 48
  store ptr %3, ptr %0, align 8
  %4 = getelementptr inbounds nuw i8, ptr %0, i64 8
  store i64 1, ptr %4, align 8
  %5 = getelementptr inbounds nuw i8, ptr %0, i64 16
  %6 = getelementptr inbounds nuw i8, ptr %0, i64 32
  tail call void @llvm.memset.p0.i64(ptr noundef nonnull align 8 dereferenceable(16) %5, i8 0, i64 16, i1 false)
  store float 1.000000e+00, ptr %6, align 8
  %7 = getelementptr inbounds nuw i8, ptr %0, i64 40
  tail call void @llvm.memset.p0.i64(ptr noundef nonnull align 8 dereferenceable(16) %7, i8 0, i64 16, i1 false)
  %8 = getelementptr inbounds nuw i8, ptr %0, i64 56
  tail call void @_ZNSt7__cxx1112basic_stringIcSt11char_traitsIcESaIcEEC1Ev(ptr noundef nonnull align 8 dereferenceable(32) %8) #15
  %9 = getelementptr inbounds nuw i8, ptr %0, i64 88
  %10 = getelementptr inbounds nuw i8, ptr %0, i64 128
  tail call void @llvm.memset.p0.i64(ptr noundef nonnull align 8 dereferenceable(25) %9, i8 0, i64 25, i1 false)
  invoke void @_ZNK10cmMakefile12GetBacktraceEv(ptr dead_on_unwind nonnull writable sret(%class.cmListFileBacktrace) align 8 %10, ptr noundef nonnull align 8 dereferenceable(3520) %1)
          to label %11 unwind label %17

11:                                               ; preds = %2
  %12 = invoke noundef i32 @_ZNK10cmMakefile15GetPolicyStatusEN10cmPolicies8PolicyIDEb(ptr noundef nonnull align 8 dereferenceable(3520) %1, i32 noundef 158, i1 noundef zeroext false)
          to label %13 unwind label %19

13:                                               ; preds = %11
  %14 = getelementptr inbounds nuw i8, ptr %0, i64 144
  store i32 %12, ptr %14, align 8
  %15 = getelementptr inbounds nuw i8, ptr %0, i64 120
  store ptr %1, ptr %15, align 8
  %16 = getelementptr inbounds nuw i8, ptr %0, i64 113
  store i8 1, ptr %16, align 1
  ret void

17:                                               ; preds = %2
  %18 = landingpad { ptr, i32 }
          cleanup
  br label %21

19:                                               ; preds = %11
  %20 = landingpad { ptr, i32 }
          cleanup
  tail call void @_ZN19cmListFileBacktraceD2Ev(ptr noundef nonnull align 8 dereferenceable(16) %10) #15
  br label %21

21:                                               ; preds = %19, %17
  %.pn = phi { ptr, i32 } [ %20, %19 ], [ %18, %17 ]
  tail call void @_ZNSt6vectorINSt7__cxx1112basic_stringIcSt11char_traitsIcESaIcEEESaIS5_EED2Ev(ptr noundef nonnull align 8 dereferenceable(24) %9) #15
  tail call void @_ZNSt7__cxx1112basic_stringIcSt11char_traitsIcESaIcEED1Ev(ptr noundef nonnull align 8 dereferenceable(32) %8) #15
  tail call void @_ZN13cmPropertyMapD2Ev(ptr noundef nonnull align 8 dereferenceable(56) %0) #15
  resume { ptr, i32 } %.pn
}